target datalayout = "e-m:e-p270:32:32-p271:32:32-p272:64:64-i64:64-i128:128-f80:128-n8:16:32:64-S128"
target triple = "x86_64-pc-linux-gnu"

%"class.duckdb_apache::thrift::transport::TBufferBase" = type { %"class.duckdb_apache::thrift::transport::TVirtualTransport.0", ptr, ptr, ptr, ptr }
%"class.duckdb_apache::thrift::transport::TVirtualTransport.0" = type { %"class.duckdb_apache::thrift::transport::TTransportDefaults" }
%"class.duckdb_apache::thrift::transport::TTransportDefaults" = type { %"class.duckdb_apache::thrift::transport::TTransport" }
%"class.duckdb_apache::thrift::transport::TTransport" = type { ptr }

; Function Attrs: mustprogress nounwind uwtable
define linkonce_odr noundef i32 @_ZNK13duckdb_apache6thrift9transport13TMemoryBuffer14available_readEv(ptr noundef nonnull align 8 dereferenceable(57) %0) #3 comdat align 2 {
  %2 = alloca ptr, align 8
  store ptr %0, ptr %2, align 8, !tbaa !3
  %3 = load ptr, ptr %2, align 8
  %4 = getelementptr inbounds nuw %"class.duckdb_apache::thrift::transport::TBufferBase", ptr %3, i32 0, i32 3
  %5 = load ptr, ptr %4, align 8, !tbaa !14
  %6 = getelementptr inbounds nuw %"class.duckdb_apache::thrift::transport::TBufferBase", ptr %3, i32 0, i32 1
  %7 = load ptr, ptr %6, align 8, !tbaa !21
  %8 = ptrtoint ptr %5 to i64
  %9 = ptrtoint ptr %7 to i64
  %10 = sub i64 %8, %9
  %11 = trunc i64 %10 to i32
  ret i32 %11
}

; Function Attrs: mustprogress uwtable
define noundef ptr @_ZN13duckdb_apache6thrift9transport13TMemoryBuffer10borrowSlowEPhPj(ptr noundef nonnull align 8 dereferenceable(57) %0, ptr noundef %1, ptr noundef %2) unnamed_addr #0 align 2 {
  %4 = alloca ptr, align 8
  %5 = alloca ptr, align 8
  %6 = alloca ptr, align 8
  %7 = alloca ptr, align 8
  store ptr %0, ptr %5, align 8, !tbaa !3
  store ptr %1, ptr %6, align 8, !tbaa !22
  store ptr %2, ptr %7, align 8, !tbaa !12
  %8 = load ptr, ptr %5, align 8
  %9 = getelementptr inbounds nuw %"class.duckdb_apache::thrift::transport::TBufferBase", ptr %8, i32 0, i32 3
  %10 = load ptr, ptr %9, align 8, !tbaa !14
  %11 = getelementptr inbounds nuw %"class.duckdb_apache::thrift::transport::TBufferBase", ptr %8, i32 0, i32 2
  store ptr %10, ptr %11, align 8, !tbaa !20
  %12 = call noundef i32 @_ZNK13duckdb_apache6thrift9transport13TMemoryBuffer14available_readEv(ptr noundef nonnull align 8 dereferenceable(57) %8)
  %13 = load ptr, ptr %7, align 8, !tbaa !12
  %14 = load i32, ptr %13, align 4, !tbaa !8
  %15 = icmp uge i32 %12, %14
  br i1 %15, label %16, label %21

16:                                               ; preds = %3
  %17 = call noundef i32 @_ZNK13duckdb_apache6thrift9transport13TMemoryBuffer14available_readEv(ptr noundef nonnull align 8 dereferenceable(57) %8)
  %18 = load ptr, ptr %7, align 8, !tbaa !12
  store i32 %17, ptr %18, align 4, !tbaa !8
  %19 = getelementptr inbounds nuw %"class.duckdb_apache::thrift::transport::TBufferBase", ptr %8, i32 0, i32 1
  %20 = load ptr, ptr %19, align 8, !tbaa !21
  store ptr %20, ptr %4, align 8
  br label %22

21:                                               ; preds = %3
  store ptr null, ptr %4, align 8
  br label %22

22:                                               ; preds = %21, %16
  %23 = load ptr, ptr %4, align 8
  ret ptr %23
}