; Function Attrs: mustprogress nofree norecurse nosync nounwind willreturn memory(argmem: readwrite) uwtable
define noundef ptr @_ZN13duckdb_apache6thrift9transport13TMemoryBuffer10borrowSlowEPhPj(ptr noundef nonnull align 8 captures(none) dereferenceable(57) initializes((16, 24)) %0, ptr readnone captures(none) %1, ptr noundef captures(none) %2) unnamed_addr #0 align 2 {
  %4 = getelementptr inbounds nuw i8, ptr %0, i64 24
  %5 = load ptr, ptr %4, align 8, !tbaa !3
  %6 = getelementptr inbounds nuw i8, ptr %0, i64 16
  store ptr %5, ptr %6, align 8, !tbaa !12
  %7 = getelementptr inbounds nuw i8, ptr %0, i64 8
  %8 = load ptr, ptr %7, align 8, !tbaa !13
  %9 = ptrtoint ptr %5 to i64
  %10 = ptrtoint ptr %8 to i64
  %11 = sub i64 %9, %10
  %12 = trunc i64 %11 to i32
  %13 = load i32, ptr %2, align 4, !tbaa !15
  %.not = icmp ugt i32 %13, %12
  br i1 %.not, label %15, label %14

14:                                               ; preds = %3
  store i32 %12, ptr %2, align 4, !tbaa !15
  br label %15

15:                                               ; preds = %3, %14
  %.0 = phi ptr [ %8, %14 ], [ null, %3 ]
  ret ptr %.0
}